target datalayout = "e-m:e-p270:32:32-p271:32:32-p272:64:64-i64:64-i128:128-f80:128-n8:16:32:64-S128"
target triple = "x86_64-pc-linux-gnu"

%struct.Vec_Mem_t_ = type { i32, i32, i32, i32, i32, i32, ptr, ptr, ptr }
%struct.Vec_Wec_t_ = type { i32, i32, ptr }
%struct.Vec_Int_t_ = type { i32, i32, ptr }
%struct.Nf_Man_t_ = type { ptr, ptr, ptr, ptr, ptr, ptr, i32, ptr, %struct.Vec_Ptr_t_, %struct.Vec_Int_t_, %struct.Vec_Int_t_, %struct.Vec_Flt_t_, %struct.Vec_Int_t_, %struct.Vec_Flt_t_, %struct.Vec_Int_t_, %struct.Vec_Int_t_, i32, i32, i32, i32, i32, i64, float, i64, [6 x double], i32 }
%struct.Vec_Ptr_t_ = type { i32, i32, ptr }
%struct.Vec_Flt_t_ = type { i32, i32, ptr }
%struct.Gia_Man_t_ = type { ptr, ptr, i32, i32, i32, i32, ptr, ptr, i32, i32, i32, ptr, ptr, %struct.Vec_Int_t_, %struct.Vec_Int_t_, i32, i32, i32, %struct.Vec_Int_t_, ptr, ptr, ptr, i32, i32, i32, i32, ptr, ptr, ptr, ptr, ptr, i32, i32, ptr, i32, ptr, ptr, ptr, ptr, ptr, ptr, ptr, ptr, ptr, ptr, ptr, ptr, ptr, ptr, ptr, ptr, ptr, ptr, %struct.Vec_Int_t_, %struct.Vec_Int_t_, ptr, ptr, ptr, ptr, ptr, ptr, ptr, ptr, ptr, ptr, ptr, ptr, ptr, ptr, ptr, ptr, ptr, ptr, ptr, ptr, ptr, i32, float, float, ptr, ptr, i32, ptr, ptr, ptr, ptr, ptr, ptr, ptr, ptr, ptr, ptr, ptr, ptr, ptr, ptr, ptr, i64, i64, ptr, ptr, i32, i32, i32, i32, i32, i32, i32, i32, i32, i32, i32, i32, ptr, ptr, ptr, ptr, ptr, ptr, ptr, ptr, i32, i32, i32, ptr, i32, i32, ptr, ptr, ptr, ptr, ptr, ptr, i32, i32, ptr, %struct.Vec_Int_t_, %struct.Vec_Int_t_, %struct.Vec_Int_t_, ptr, ptr, ptr, i32, i32, i32, i32, ptr, ptr, ptr, ptr, ptr }
%struct.Jf_Par_t_ = type { i32, i32, i32, i32, i32, i32, i32, i32, i32, i32, i32, i32, i32, i32, i32, i32, i32, i32, i32, i32, i32, i32, i32, i32, i32, i32, i32, i32, i32, i32, i32, i32, i32, i32, i32, i32, i32, i32, i32, i32, i64, i64, i64, i64, i64, i64, i64, i64, i32, float, float, float, float, ptr, ptr }

@stdout = external global ptr, align 8
@.str.16 = private unnamed_addr constant [15 x i8] c"LutSize = %d  \00", align 1
@.str.17 = private unnamed_addr constant [14 x i8] c"CutNum = %d  \00", align 1
@.str.18 = private unnamed_addr constant [12 x i8] c"Iter = %d  \00", align 1
@.str.19 = private unnamed_addr constant [15 x i8] c"Coarse = %d   \00", align 1
@.str.20 = private unnamed_addr constant [13 x i8] c"Cells = %d  \00", align 1
@.str.21 = private unnamed_addr constant [13 x i8] c"Funcs = %d  \00", align 1
@.str.22 = private unnamed_addr constant [15 x i8] c"Matches = %d  \00", align 1
@.str.23 = private unnamed_addr constant [11 x i8] c"And = %d  \00", align 1
@.str.24 = private unnamed_addr constant [15 x i8] c"Choices = %d  \00", align 1
@.str.25 = private unnamed_addr constant [2 x i8] c"\0A\00", align 1
@.str.26 = private unnamed_addr constant [19 x i8] c"Computing cuts...\0D\00", align 1

; Function Attrs: inlinehint nounwind uwtable
define internal i32 @Vec_IntSize(ptr noundef %0) #2 {
  %2 = alloca ptr, align 8
  store ptr %0, ptr %2, align 8, !tbaa !26
  %3 = load ptr, ptr %2, align 8, !tbaa !26
  %4 = getelementptr inbounds nuw %struct.Vec_Int_t_, ptr %3, i32 0, i32 1
  %5 = load i32, ptr %4, align 4, !tbaa !44
  ret i32 %5
}

; Function Attrs: inlinehint nounwind uwtable
define internal ptr @Vec_WecEntry(ptr noundef %0, i32 noundef %1) #2 {
  %3 = alloca ptr, align 8
  %4 = alloca i32, align 4
  store ptr %0, ptr %3, align 8, !tbaa !23
  store i32 %1, ptr %4, align 4, !tbaa !17
  %5 = load ptr, ptr %3, align 8, !tbaa !23
  %6 = getelementptr inbounds nuw %struct.Vec_Wec_t_, ptr %5, i32 0, i32 2
  %7 = load ptr, ptr %6, align 8, !tbaa !43
  %8 = load i32, ptr %4, align 4, !tbaa !17
  %9 = sext i32 %8 to i64
  %10 = getelementptr inbounds %struct.Vec_Int_t_, ptr %7, i64 %9
  ret ptr %10
}

; Function Attrs: inlinehint nounwind uwtable
define internal i32 @Vec_WecSize(ptr noundef %0) #2 {
  %2 = alloca ptr, align 8
  store ptr %0, ptr %2, align 8, !tbaa !23
  %3 = load ptr, ptr %2, align 8, !tbaa !23
  %4 = getelementptr inbounds nuw %struct.Vec_Wec_t_, ptr %3, i32 0, i32 1
  %5 = load i32, ptr %4, align 4, !tbaa !40
  ret i32 %5
}

; Function Attrs: inlinehint nounwind uwtable
define internal i32 @Gia_ManChoiceNum(ptr noundef %0) #2 {
  %2 = alloca ptr, align 8
  %3 = alloca i32, align 4
  %4 = alloca i32, align 4
  store ptr %0, ptr %2, align 8, !tbaa !84
  call void @llvm.lifetime.start.p0(i64 4, ptr %3) #13
  store i32 0, ptr %3, align 4, !tbaa !17
  %5 = load ptr, ptr %2, align 8, !tbaa !84
  %6 = getelementptr inbounds nuw %struct.Gia_Man_t_, ptr %5, i32 0, i32 29
  %7 = load ptr, ptr %6, align 8, !tbaa !117
  %8 = icmp ne ptr %7, null
  br i1 %8, label %9, label %32

9:                                                ; preds = %1
  call void @llvm.lifetime.start.p0(i64 4, ptr %4) #13
  store i32 0, ptr %4, align 4, !tbaa !17
  br label %10

10:                                               ; preds = %28, %9
  %11 = load i32, ptr %4, align 4, !tbaa !17
  %12 = load ptr, ptr %2, align 8, !tbaa !84
  %13 = getelementptr inbounds nuw %struct.Gia_Man_t_, ptr %12, i32 0, i32 4
  %14 = load i32, ptr %13, align 8, !tbaa !118
  %15 = icmp slt i32 %11, %14
  br i1 %15, label %16, label %31

16:                                               ; preds = %10
  %17 = load ptr, ptr %2, align 8, !tbaa !84
  %18 = getelementptr inbounds nuw %struct.Gia_Man_t_, ptr %17, i32 0, i32 29
  %19 = load ptr, ptr %18, align 8, !tbaa !117
  %20 = load i32, ptr %4, align 4, !tbaa !17
  %21 = sext i32 %20 to i64
  %22 = getelementptr inbounds i32, ptr %19, i64 %21
  %23 = load i32, ptr %22, align 4, !tbaa !17
  %24 = icmp sgt i32 %23, 0
  %25 = zext i1 %24 to i32
  %26 = load i32, ptr %3, align 4, !tbaa !17
  %27 = add nsw i32 %26, %25
  store i32 %27, ptr %3, align 4, !tbaa !17
  br label %28

28:                                               ; preds = %16
  %29 = load i32, ptr %4, align 4, !tbaa !17
  %30 = add nsw i32 %29, 1
  store i32 %30, ptr %4, align 4, !tbaa !17
  br label %10, !llvm.loop !189

31:                                               ; preds = %10
  call void @llvm.lifetime.end.p0(i64 4, ptr %4) #13
  br label %32

32:                                               ; preds = %31, %1
  %33 = load i32, ptr %3, align 4, !tbaa !17
  call void @llvm.lifetime.end.p0(i64 4, ptr %3) #13
  ret i32 %33
}

; Function Attrs: inlinehint nounwind uwtable
define internal i32 @Gia_ManAndNum(ptr noundef %0) #2 {
  %2 = alloca ptr, align 8
  store ptr %0, ptr %2, align 8, !tbaa !84
  %3 = load ptr, ptr %2, align 8, !tbaa !84
  %4 = getelementptr inbounds nuw %struct.Gia_Man_t_, ptr %3, i32 0, i32 4
  %5 = load i32, ptr %4, align 8, !tbaa !118
  %6 = load ptr, ptr %2, align 8, !tbaa !84
  %7 = getelementptr inbounds nuw %struct.Gia_Man_t_, ptr %6, i32 0, i32 11
  %8 = load ptr, ptr %7, align 8, !tbaa !187
  %9 = call i32 @Vec_IntSize(ptr noundef %8)
  %10 = sub nsw i32 %5, %9
  %11 = load ptr, ptr %2, align 8, !tbaa !84
  %12 = getelementptr inbounds nuw %struct.Gia_Man_t_, ptr %11, i32 0, i32 12
  %13 = load ptr, ptr %12, align 8, !tbaa !188
  %14 = call i32 @Vec_IntSize(ptr noundef %13)
  %15 = sub nsw i32 %10, %14
  %16 = sub nsw i32 %15, 1
  ret i32 %16
}

; Function Attrs: inlinehint nounwind uwtable
define internal i32 @Vec_WecSizeSize(ptr noundef %0) #2 {
  %2 = alloca ptr, align 8
  %3 = alloca ptr, align 8
  %4 = alloca i32, align 4
  %5 = alloca i32, align 4
  store ptr %0, ptr %2, align 8, !tbaa !23
  call void @llvm.lifetime.start.p0(i64 8, ptr %3) #13
  call void @llvm.lifetime.start.p0(i64 4, ptr %4) #13
  call void @llvm.lifetime.start.p0(i64 4, ptr %5) #13
  store i32 0, ptr %5, align 4, !tbaa !17
  store i32 0, ptr %4, align 4, !tbaa !17
  br label %6

6:                                                ; preds = %22, %1
  %7 = load i32, ptr %4, align 4, !tbaa !17
  %8 = load ptr, ptr %2, align 8, !tbaa !23
  %9 = call i32 @Vec_WecSize(ptr noundef %8)
  %10 = icmp slt i32 %7, %9
  br i1 %10, label %11, label %15

11:                                               ; preds = %6
  %12 = load ptr, ptr %2, align 8, !tbaa !23
  %13 = load i32, ptr %4, align 4, !tbaa !17
  %14 = call ptr @Vec_WecEntry(ptr noundef %12, i32 noundef %13)
  store ptr %14, ptr %3, align 8, !tbaa !26
  br label %15

15:                                               ; preds = %11, %6
  %16 = phi i1 [ false, %6 ], [ true, %11 ]
  br i1 %16, label %17, label %25

17:                                               ; preds = %15
  %18 = load ptr, ptr %3, align 8, !tbaa !26
  %19 = call i32 @Vec_IntSize(ptr noundef %18)
  %20 = load i32, ptr %5, align 4, !tbaa !17
  %21 = add nsw i32 %20, %19
  store i32 %21, ptr %5, align 4, !tbaa !17
  br label %22

22:                                               ; preds = %17
  %23 = load i32, ptr %4, align 4, !tbaa !17
  %24 = add nsw i32 %23, 1
  store i32 %24, ptr %4, align 4, !tbaa !17
  br label %6, !llvm.loop !186

25:                                               ; preds = %15
  %26 = load i32, ptr %5, align 4, !tbaa !17
  call void @llvm.lifetime.end.p0(i64 4, ptr %5) #13
  call void @llvm.lifetime.end.p0(i64 4, ptr %4) #13
  call void @llvm.lifetime.end.p0(i64 8, ptr %3) #13
  ret i32 %26
}

; Function Attrs: inlinehint nounwind uwtable
define internal i32 @Vec_MemEntryNum(ptr noundef %0) #2 {
  %2 = alloca ptr, align 8
  store ptr %0, ptr %2, align 8, !tbaa !21
  %3 = load ptr, ptr %2, align 8, !tbaa !21
  %4 = getelementptr inbounds nuw %struct.Vec_Mem_t_, ptr %3, i32 0, i32 1
  %5 = load i32, ptr %4, align 4, !tbaa !34
  ret i32 %5
}

; Function Attrs: nounwind uwtable
define void @Nf_ManPrintInit(ptr noundef %0) #0 {
  %2 = alloca ptr, align 8
  %3 = alloca i32, align 4
  %4 = alloca i32, align 4
  store ptr %0, ptr %2, align 8, !tbaa !61
  call void @llvm.lifetime.start.p0(i64 4, ptr %3) #13
  %5 = load ptr, ptr %2, align 8, !tbaa !61
  %6 = getelementptr inbounds nuw %struct.Nf_Man_t_, ptr %5, i32 0, i32 2
  %7 = load ptr, ptr %6, align 8, !tbaa !103
  %8 = getelementptr inbounds nuw %struct.Jf_Par_t_, ptr %7, i32 0, i32 34
  %9 = load i32, ptr %8, align 8, !tbaa !176
  %10 = icmp ne i32 %9, 0
  br i1 %10, label %12, label %11

11:                                               ; preds = %1
  store i32 1, ptr %4, align 4
  br label %71

12:                                               ; preds = %1
  %13 = load ptr, ptr %2, align 8, !tbaa !61
  %14 = getelementptr inbounds nuw %struct.Nf_Man_t_, ptr %13, i32 0, i32 2
  %15 = load ptr, ptr %14, align 8, !tbaa !103
  %16 = getelementptr inbounds nuw %struct.Jf_Par_t_, ptr %15, i32 0, i32 0
  %17 = load i32, ptr %16, align 8, !tbaa !138
  %18 = call i32 (ptr, ...) @printf(ptr noundef @.str.16, i32 noundef %17)
  %19 = load ptr, ptr %2, align 8, !tbaa !61
  %20 = getelementptr inbounds nuw %struct.Nf_Man_t_, ptr %19, i32 0, i32 2
  %21 = load ptr, ptr %20, align 8, !tbaa !103
  %22 = getelementptr inbounds nuw %struct.Jf_Par_t_, ptr %21, i32 0, i32 1
  %23 = load i32, ptr %22, align 4, !tbaa !139
  %24 = call i32 (ptr, ...) @printf(ptr noundef @.str.17, i32 noundef %23)
  %25 = load ptr, ptr %2, align 8, !tbaa !61
  %26 = getelementptr inbounds nuw %struct.Nf_Man_t_, ptr %25, i32 0, i32 2
  %27 = load ptr, ptr %26, align 8, !tbaa !103
  %28 = getelementptr inbounds nuw %struct.Jf_Par_t_, ptr %27, i32 0, i32 3
  %29 = load i32, ptr %28, align 4, !tbaa !184
  %30 = call i32 (ptr, ...) @printf(ptr noundef @.str.18, i32 noundef %29)
  %31 = load ptr, ptr %2, align 8, !tbaa !61
  %32 = getelementptr inbounds nuw %struct.Nf_Man_t_, ptr %31, i32 0, i32 2
  %33 = load ptr, ptr %32, align 8, !tbaa !103
  %34 = getelementptr inbounds nuw %struct.Jf_Par_t_, ptr %33, i32 0, i32 21
  %35 = load i32, ptr %34, align 4, !tbaa !185
  %36 = call i32 (ptr, ...) @printf(ptr noundef @.str.19, i32 noundef %35)
  %37 = load ptr, ptr %2, align 8, !tbaa !61
  %38 = getelementptr inbounds nuw %struct.Nf_Man_t_, ptr %37, i32 0, i32 6
  %39 = load i32, ptr %38, align 8, !tbaa !83
  %40 = call i32 (ptr, ...) @printf(ptr noundef @.str.20, i32 noundef %39)
  %41 = load ptr, ptr %2, align 8, !tbaa !61
  %42 = getelementptr inbounds nuw %struct.Nf_Man_t_, ptr %41, i32 0, i32 3
  %43 = load ptr, ptr %42, align 8, !tbaa !72
  %44 = call i32 @Vec_MemEntryNum(ptr noundef %43)
  %45 = call i32 (ptr, ...) @printf(ptr noundef @.str.21, i32 noundef %44)
  %46 = load ptr, ptr %2, align 8, !tbaa !61
  %47 = getelementptr inbounds nuw %struct.Nf_Man_t_, ptr %46, i32 0, i32 4
  %48 = load ptr, ptr %47, align 8, !tbaa !80
  %49 = call i32 @Vec_WecSizeSize(ptr noundef %48)
  %50 = sdiv i32 %49, 2
  %51 = call i32 (ptr, ...) @printf(ptr noundef @.str.22, i32 noundef %50)
  %52 = load ptr, ptr %2, align 8, !tbaa !61
  %53 = getelementptr inbounds nuw %struct.Nf_Man_t_, ptr %52, i32 0, i32 0
  %54 = load ptr, ptr %53, align 8, !tbaa !100
  %55 = call i32 @Gia_ManAndNum(ptr noundef %54)
  %56 = call i32 (ptr, ...) @printf(ptr noundef @.str.23, i32 noundef %55)
  %57 = load ptr, ptr %2, align 8, !tbaa !61
  %58 = getelementptr inbounds nuw %struct.Nf_Man_t_, ptr %57, i32 0, i32 0
  %59 = load ptr, ptr %58, align 8, !tbaa !100
  %60 = call i32 @Gia_ManChoiceNum(ptr noundef %59)
  store i32 %60, ptr %3, align 4, !tbaa !17
  %61 = load i32, ptr %3, align 4, !tbaa !17
  %62 = icmp ne i32 %61, 0
  br i1 %62, label %63, label %66

63:                                               ; preds = %12
  %64 = load i32, ptr %3, align 4, !tbaa !17
  %65 = call i32 (ptr, ...) @printf(ptr noundef @.str.24, i32 noundef %64)
  br label %66

66:                                               ; preds = %63, %12
  %67 = call i32 (ptr, ...) @printf(ptr noundef @.str.25)
  %68 = call i32 (ptr, ...) @printf(ptr noundef @.str.26)
  %69 = load ptr, ptr @stdout, align 8, !tbaa !182
  %70 = call i32 @fflush(ptr noundef %69)
  store i32 0, ptr %4, align 4
  br label %71

71:                                               ; preds = %66, %11
  call void @llvm.lifetime.end.p0(i64 4, ptr %3) #13
  %72 = load i32, ptr %4, align 4
  switch i32 %72, label %74 [
    i32 0, label %73
    i32 1, label %73
  ]

73:                                               ; preds = %71, %71
  ret void

74:                                               ; preds = %71
  unreachable
}