; Function Attrs: nofree nounwind uwtable
define void @Nf_ManPrintInit(ptr noundef readonly captures(none) %0) local_unnamed_addr #7 {
  %2 = getelementptr inbounds nuw i8, ptr %0, i64 16
  %3 = load ptr, ptr %2, align 8, !tbaa !103
  %4 = getelementptr inbounds nuw i8, ptr %3, i64 136
  %5 = load i32, ptr %4, align 8, !tbaa !178
  %.not = icmp eq i32 %5, 0
  br i1 %.not, label %67, label %6

6:                                                ; preds = %1
  %7 = load i32, ptr %3, align 8, !tbaa !135
  %8 = tail call i32 (ptr, ...) @printf(ptr noundef nonnull dereferenceable(1) @.str.16, i32 noundef %7)
  %9 = load ptr, ptr %2, align 8, !tbaa !103
  %10 = getelementptr inbounds nuw i8, ptr %9, i64 4
  %11 = load i32, ptr %10, align 4, !tbaa !136
  %12 = tail call i32 (ptr, ...) @printf(ptr noundef nonnull dereferenceable(1) @.str.17, i32 noundef %11)
  %13 = load ptr, ptr %2, align 8, !tbaa !103
  %14 = getelementptr inbounds nuw i8, ptr %13, i64 12
  %15 = load i32, ptr %14, align 4, !tbaa !186
  %16 = tail call i32 (ptr, ...) @printf(ptr noundef nonnull dereferenceable(1) @.str.18, i32 noundef %15)
  %17 = load ptr, ptr %2, align 8, !tbaa !103
  %18 = getelementptr inbounds nuw i8, ptr %17, i64 84
  %19 = load i32, ptr %18, align 4, !tbaa !187
  %20 = tail call i32 (ptr, ...) @printf(ptr noundef nonnull dereferenceable(1) @.str.19, i32 noundef %19)
  %21 = getelementptr inbounds nuw i8, ptr %0, i64 48
  %22 = load i32, ptr %21, align 8, !tbaa !80
  %23 = tail call i32 (ptr, ...) @printf(ptr noundef nonnull dereferenceable(1) @.str.20, i32 noundef %22)
  %24 = getelementptr inbounds nuw i8, ptr %0, i64 24
  %25 = load ptr, ptr %24, align 8, !tbaa !74
  %26 = getelementptr i8, ptr %25, i64 4
  %.val = load i32, ptr %26, align 4, !tbaa !31
  %27 = tail call i32 (ptr, ...) @printf(ptr noundef nonnull dereferenceable(1) @.str.21, i32 noundef %.val)
  %28 = getelementptr inbounds nuw i8, ptr %0, i64 32
  %29 = load ptr, ptr %28, align 8, !tbaa !78
  %30 = getelementptr i8, ptr %29, i64 4
  %.val8.i = load i32, ptr %30, align 4, !tbaa !17
  %31 = icmp sgt i32 %.val8.i, 0
  br i1 %31, label %.lr.ph.i, label %Vec_WecSizeSize.exit

.lr.ph.i:                                         ; preds = %6
  %32 = getelementptr i8, ptr %29, i64 8
  %.val9.i = load ptr, ptr %32, align 8, !tbaa !20
  %wide.trip.count.i = zext nneg i32 %.val8.i to i64
  br label %33

33:                                               ; preds = %33, %.lr.ph.i
  %indvars.iv.i = phi i64 [ 0, %.lr.ph.i ], [ %indvars.iv.next.i, %33 ]
  %.011.i = phi i32 [ 0, %.lr.ph.i ], [ %35, %33 ]
  %34 = getelementptr %struct.Vec_Int_t_, ptr %.val9.i, i64 %indvars.iv.i, i32 1
  %.val.i = load i32, ptr %34, align 4, !tbaa !22
  %35 = add nsw i32 %.val.i, %.011.i
  %indvars.iv.next.i = add nuw nsw i64 %indvars.iv.i, 1
  %exitcond.not.i = icmp eq i64 %indvars.iv.next.i, %wide.trip.count.i
  br i1 %exitcond.not.i, label %Vec_WecSizeSize.exit.loopexit, label %33, !llvm.loop !188

Vec_WecSizeSize.exit.loopexit:                    ; preds = %33
  %36 = sdiv i32 %35, 2
  br label %Vec_WecSizeSize.exit

Vec_WecSizeSize.exit:                             ; preds = %Vec_WecSizeSize.exit.loopexit, %6
  %.0.lcssa.i = phi i32 [ 0, %6 ], [ %36, %Vec_WecSizeSize.exit.loopexit ]
  %37 = tail call i32 (ptr, ...) @printf(ptr noundef nonnull dereferenceable(1) @.str.22, i32 noundef %.0.lcssa.i)
  %38 = load ptr, ptr %0, align 8, !tbaa !100
  %39 = getelementptr inbounds nuw i8, ptr %38, i64 24
  %40 = load i32, ptr %39, align 8, !tbaa !104
  %41 = getelementptr inbounds nuw i8, ptr %38, i64 64
  %42 = load ptr, ptr %41, align 8, !tbaa !189
  %43 = getelementptr i8, ptr %42, i64 4
  %.val3.i = load i32, ptr %43, align 4, !tbaa !22
  %44 = getelementptr inbounds nuw i8, ptr %38, i64 72
  %45 = load ptr, ptr %44, align 8, !tbaa !190
  %46 = getelementptr i8, ptr %45, i64 4
  %.val.i12 = load i32, ptr %46, align 4, !tbaa !22
  %47 = add i32 %.val.i12, %.val3.i
  %48 = xor i32 %47, -1
  %49 = add i32 %40, %48
  %50 = tail call i32 (ptr, ...) @printf(ptr noundef nonnull dereferenceable(1) @.str.23, i32 noundef %49)
  %51 = load ptr, ptr %0, align 8, !tbaa !100
  %52 = getelementptr inbounds nuw i8, ptr %51, i64 208
  %53 = load ptr, ptr %52, align 8, !tbaa !95
  %.not.i = icmp eq ptr %53, null
  br i1 %.not.i, label %Gia_ManChoiceNum.exit.thread, label %.preheader.i

.preheader.i:                                     ; preds = %Vec_WecSizeSize.exit
  %54 = getelementptr inbounds nuw i8, ptr %51, i64 24
  %55 = load i32, ptr %54, align 8, !tbaa !104
  %56 = icmp sgt i32 %55, 0
  br i1 %56, label %.lr.ph.preheader.i, label %Gia_ManChoiceNum.exit.thread

.lr.ph.preheader.i:                               ; preds = %.preheader.i
  %wide.trip.count.i13 = zext nneg i32 %55 to i64
  br label %.lr.ph.i14

.lr.ph.i14:                                       ; preds = %.lr.ph.i14, %.lr.ph.preheader.i
  %indvars.iv.i15 = phi i64 [ 0, %.lr.ph.preheader.i ], [ %indvars.iv.next.i16, %.lr.ph.i14 ]
  %.18.i = phi i32 [ 0, %.lr.ph.preheader.i ], [ %61, %.lr.ph.i14 ]
  %57 = getelementptr inbounds nuw i32, ptr %53, i64 %indvars.iv.i15
  %58 = load i32, ptr %57, align 4, !tbaa !13
  %59 = icmp sgt i32 %58, 0
  %60 = zext i1 %59 to i32
  %61 = add nuw nsw i32 %.18.i, %60
  %indvars.iv.next.i16 = add nuw nsw i64 %indvars.iv.i15, 1
  %exitcond.not.i17 = icmp eq i64 %indvars.iv.next.i16, %wide.trip.count.i13
  br i1 %exitcond.not.i17, label %Gia_ManChoiceNum.exit, label %.lr.ph.i14, !llvm.loop !191

Gia_ManChoiceNum.exit:                            ; preds = %.lr.ph.i14
  %.not11 = icmp eq i32 %61, 0
  br i1 %.not11, label %Gia_ManChoiceNum.exit.thread, label %62

62:                                               ; preds = %Gia_ManChoiceNum.exit
  %63 = tail call i32 (ptr, ...) @printf(ptr noundef nonnull dereferenceable(1) @.str.24, i32 noundef %61)
  br label %Gia_ManChoiceNum.exit.thread

Gia_ManChoiceNum.exit.thread:                     ; preds = %.preheader.i, %Vec_WecSizeSize.exit, %62, %Gia_ManChoiceNum.exit
  %putchar = tail call i32 @putchar(i32 10)
  %64 = tail call i32 (ptr, ...) @printf(ptr noundef nonnull dereferenceable(1) @.str.26)
  %65 = load ptr, ptr @stdout, align 8, !tbaa !184
  %66 = tail call i32 @fflush(ptr noundef %65)
  br label %67

67:                                               ; preds = %1, %Gia_ManChoiceNum.exit.thread
  ret void
}